; Function Attrs: null_pointer_is_valid sspstrong uwtable
define internal i32 @dissect_FMP_FlushGetAttr_request(ptr noundef %0, ptr readnone captures(none) %1, ptr noundef %2, ptr readnone captures(none) %3) #0 {
  %5 = tail call fastcc i32 @dissect_fmp_fileHandleSrc(ptr noundef %0, i32 noundef 0, ptr noundef %2)
  %6 = load i32, ptr @hf_fmp_msgNum, align 4
  %7 = tail call i32 @dissect_rpc_uint32(ptr noundef %0, ptr noundef %2, i32 noundef %6, i32 noundef %5)
  %8 = load i32, ptr @hf_fmp_cmd, align 4
  %9 = tail call i32 @dissect_rpc_uint32(ptr noundef %0, ptr noundef %2, i32 noundef %8, i32 noundef %7)
  %10 = load i32, ptr @hf_fmp_eof, align 4
  %11 = tail call i32 @dissect_rpc_uint64(ptr noundef %0, ptr noundef %2, i32 noundef %10, i32 noundef %9)
  %12 = load i32, ptr @hf_fmp_mtime, align 4
  %13 = tail call ptr @proto_tree_add_item(ptr noundef %2, i32 noundef %12, ptr noundef %0, i32 noundef %11, i32 noundef 8, i32 noundef 0)
  %14 = add i32 %11, 8
  %15 = tail call fastcc i32 @dissect_fmp_extentList(ptr noundef %0, i32 noundef %14, ptr noundef %2)
  ret i32 %15
}